; Function Attrs: mustprogress nofree norecurse nosync nounwind willreturn memory(read, inaccessiblemem: none) uwtable
define noundef double @_ZNK5faiss27ReproduceDistancesObjective14get_source_disEii(ptr noundef nonnull readonly align 8 captures(none) dereferenceable(80) %0, i32 noundef %1, i32 noundef %2) local_unnamed_addr #2 align 2 {
  %4 = getelementptr inbounds nuw i8, ptr %0, i64 24
  %5 = getelementptr inbounds nuw i8, ptr %0, i64 8
  %6 = load i32, ptr %5, align 8, !tbaa !7
  %7 = mul nsw i32 %6, %1
  %8 = add nsw i32 %7, %2
  %9 = sext i32 %8 to i64
  %10 = load ptr, ptr %4, align 8, !tbaa !20
  %11 = getelementptr inbounds nuw double, ptr %10, i64 %9
  %12 = load double, ptr %11, align 8, !tbaa !12
  ret double %12
}